Certificate:
    Data:
        Version: 3 (0x2)
        Serial Number: 3 (0x3)
        Signature Algorithm: sha1WithRSAEncryption
        Issuer: C=US, ST=WA, L=Seattle, CN=intermediate-ca.example.com
        Validity
            Not Before: May 14 23:38:43 2014 GMT
            Not After : Jun 22 23:38:43 2019 GMT
        Subject: C=US, ST=WA, L=Seattle, OU=people, CN=client2/emailAddress=client2@example.com
        Subject Public Key Info:
            Public Key Algorithm: rsaEncryption
            RSA Public Key: (1024 bit)
                Modulus (1024 bit):
                    00:a1:be:76:e1:f9:46:e2:13:c8:c5:72:75:d7:fe:
                    d5:c7:0e:e9:84:0e:78:63:df:cc:0e:66:f6:50:56:
                    69:2c:4f:cb:a7:4f:cf:20:99:56:f4:2e:3d:f9:5e:
                    40:f7:64:49:8e:5a:e1:c0:45:ab:19:55:20:80:34:
                    e0:fd:f1:2f:e0:83:3a:b4:97:8b:2d:19:c2:71:49:
                    9c:8f:39:cf:ec:56:ef:46:46:64:08:94:60:7b:bf:
                    45:57:b0:47:8a:b3:1a:76:70:e0:50:55:4b:a7:13:
                    b7:ca:45:fb:a4:c3:dc:1c:c9:f9:c9:aa:25:08:78:
                    c7:1d:c5:96:d4:30:1e:61:ab
                Exponent: 65537 (0x10001)
        X509v3 extensions:
            X509v3 Basic Constraints: 
                CA:FALSE
            Netscape Cert Type: 
                SSL Client
            X509v3 Key Usage: 
                Digital Signature, Key Encipherment
            X509v3 Extended Key Usage: 
                TLS Web Client Authentication
            Netscape Comment: 
                OpenSSL Certificate for SSL Client
            X509v3 Subject Alternative Name: 
                email:client2@example.com
            X509v3 CRL Distribution Points: 
                URI:ldap://ldap.example.com:389/CN=crl,DC=example,DC=com
                URI:http://crl.example.com/crl

    Signature Algorithm: sha1WithRSAEncryption
        62:30:d7:c0:90:be:be:11:01:0d:3e:d5:71:07:57:bc:0a:f8:
        35:d1:a6:63:ba:0a:dc:6d:a5:b4:61:6b:0e:a3:21:34:d3:82:
        a6:1c:b4:6b:14:ef:70:cb:db:05:98:be:7f:ea:6c:e1:b1:1e:
        bd:59:97:7e:95:e8:9f:25:26:96:93:46:7a:f7:1f:4f:ba:e7:
        39:8e:86:34:bf:d1:23:35:97:98:ee:db:ec:33:5a:f3:1c:34:
        49:54:2d:ed:2a:f5:96:ec:94:e2:df:01:71:73:91:f1:a6:62:
        8d:5d:19:30:f3:f1:87:57:36:35:af:04:27:6b:f5:46:8f:2c:
        8b:b3
-----BEGIN CERTIFICATE-----
MIIDOzCCAqSgAwIBAgIBAzANBgkqhkiG9w0BAQUFADBSMQswCQYDVQQGEwJVUzEL
MAkGA1UECBMCV0ExEDAOBgNVBAcTB1NlYXR0bGUxJDAiBgNVBAMTG2ludGVybWVk
aWF0ZS1jYS5leGFtcGxlLmNvbTAeFw0xNDA1MTQyMzM4NDNaFw0xOTA2MjIyMzM4
NDNaMHMxCzAJBgNVBAYTAlVTMQswCQYDVQQIEwJXQTEQMA4GA1UEBxMHU2VhdHRs
ZTEPMA0GA1UECxMGcGVvcGxlMRAwDgYDVQQDEwdjbGllbnQyMSIwIAYJKoZIhvcN
AQkBFhNjbGllbnQyQGV4YW1wbGUuY29tMIGfMA0GCSqGSIb3DQEBAQUAA4GNADCB
iQKBgQChvnbh+UbiE8jFcnXX/tXHDumEDnhj38wOZvZQVmksT8unT88gmVb0Lj35
XkD3ZEmOWuHARasZVSCANOD98S/ggzq0l4stGcJxSZyPOc/sVu9GRmQIlGB7v0VX
sEeKsxp2cOBQVUunE7fKRfukw9wcyfnJqiUIeMcdxZbUMB5hqwIDAQABo4H/MIH8
MAkGA1UdEwQCMAAwEQYJYIZIAYb4QgEBBAQDAgeAMAsGA1UdDwQEAwIFoDATBgNV
HSUEDDAKBggrBgEFBQcDAjAxBglghkgBhvhCAQ0EJBYiT3BlblNTTCBDZXJ0aWZp
Y2F0ZSBmb3IgU1NMIENsaWVudDAeBgNVHREEFzAVgRNjbGllbnQyQGV4YW1wbGUu
Y29tMGcGA1UdHwRgMF4wOqA4oDaGNGxkYXA6Ly9sZGFwLmV4YW1wbGUuY29tOjM4
OS9DTj1jcmwsREM9ZXhhbXBsZSxEQz1jb20wIKAeoByGGmh0dHA6Ly9jcmwuZXhh
bXBsZS5jb20vY3JsMA0GCSqGSIb3DQEBBQUAA4GBAGIw18CQvr4RAQ0+1XEHV7wK
+DXRpmO6CtxtpbRhaw6jITTTgqYctGsU73DL2wWYvn/qbOGxHr1Zl36V6J8lJpaT
Rnr3H0+65zmOhjS/0SM1l5ju2+wzWvMcNElULe0q9ZbslOLfAXFzkfGmYo1dGTDz
8YdXNjWvBCdr9UaPLIuz
-----END CERTIFICATE-----
