Certificate:
    Data:
        Version: 3 (0x2)
        Serial Number: 6 (0x6)
        Signature Algorithm: sha1WithRSAEncryption
        Issuer: C=US, ST=WA, L=Seattle, CN=intermediate-ca.example.com
        Validity
            Not Before: May 14 23:38:43 2014 GMT
            Not After : Jun 22 23:38:43 2019 GMT
        Subject: C=US, ST=WA, L=Seattle, OU=people, CN=client5/emailAddress=client5@example.com
        Subject Public Key Info:
            Public Key Algorithm: rsaEncryption
            RSA Public Key: (1024 bit)
                Modulus (1024 bit):
                    00:d3:c1:91:f5:82:cc:28:61:43:68:92:7c:32:52:
                    a7:02:f7:9d:3f:d9:ce:aa:32:51:80:49:e0:b0:fc:
                    93:17:0b:9c:40:57:2f:9d:7c:6b:fc:a2:a6:29:33:
                    35:d6:9b:09:79:67:b1:6e:34:c1:27:ac:6e:78:6f:
                    80:be:40:c9:ad:31:26:24:b4:9e:e2:4d:58:e2:ec:
                    a7:eb:e3:55:23:90:42:ad:c4:80:07:e1:4a:b1:27:
                    e2:28:3b:18:71:ae:6f:e4:01:97:f3:5b:d7:b0:6c:
                    e9:1d:ae:e8:df:e8:c3:91:a8:83:ce:ac:87:a4:51:
                    fe:5a:da:d9:b9:89:32:55:99
                Exponent: 65537 (0x10001)
        X509v3 extensions:
            X509v3 Basic Constraints: 
                CA:FALSE
            Netscape Cert Type: 
                SSL Client
            X509v3 Key Usage: 
                Digital Signature, Key Encipherment
            X509v3 Extended Key Usage: 
                TLS Web Client Authentication
            Netscape Comment: 
                OpenSSL Certificate for SSL Client
            X509v3 Subject Alternative Name: 
                email:client5@example.com
            X509v3 CRL Distribution Points: 
                URI:ldap://ldap.example.com:389/CN=crl,DC=example,DC=com
                URI:http://crl.example.com/crl

    Signature Algorithm: sha1WithRSAEncryption
        70:fe:5f:fb:c8:4f:49:eb:08:37:c2:5e:99:1e:7d:c8:59:3e:
        5f:bb:e7:14:1b:ec:64:4c:1b:3d:14:bc:7e:75:2f:10:0f:56:
        e6:c3:bb:87:c7:03:3b:b0:96:68:dc:0d:de:6d:e0:ab:a0:b5:
        86:1d:8b:f7:44:9d:0b:e1:3b:59:d4:7f:a9:11:65:be:ec:be:
        8b:39:79:33:05:4a:76:5b:c1:d7:88:17:b1:ab:8f:34:da:da:
        79:15:6e:49:b1:ec:ce:f8:95:86:8d:e2:70:cd:e9:57:29:f3:
        8a:6e:84:59:6a:28:06:58:ce:2f:f7:8a:fc:92:84:1f:ac:f9:
        40:f8
-----BEGIN CERTIFICATE-----
MIIDOzCCAqSgAwIBAgIBBjANBgkqhkiG9w0BAQUFADBSMQswCQYDVQQGEwJVUzEL
MAkGA1UECBMCV0ExEDAOBgNVBAcTB1NlYXR0bGUxJDAiBgNVBAMTG2ludGVybWVk
aWF0ZS1jYS5leGFtcGxlLmNvbTAeFw0xNDA1MTQyMzM4NDNaFw0xOTA2MjIyMzM4
NDNaMHMxCzAJBgNVBAYTAlVTMQswCQYDVQQIEwJXQTEQMA4GA1UEBxMHU2VhdHRs
ZTEPMA0GA1UECxMGcGVvcGxlMRAwDgYDVQQDEwdjbGllbnQ1MSIwIAYJKoZIhvcN
AQkBFhNjbGllbnQ1QGV4YW1wbGUuY29tMIGfMA0GCSqGSIb3DQEBAQUAA4GNADCB
iQKBgQDTwZH1gswoYUNoknwyUqcC950/2c6qMlGASeCw/JMXC5xAVy+dfGv8oqYp
MzXWmwl5Z7FuNMEnrG54b4C+QMmtMSYktJ7iTVji7Kfr41UjkEKtxIAH4UqxJ+Io
Oxhxrm/kAZfzW9ewbOkdrujf6MORqIPOrIekUf5a2tm5iTJVmQIDAQABo4H/MIH8
MAkGA1UdEwQCMAAwEQYJYIZIAYb4QgEBBAQDAgeAMAsGA1UdDwQEAwIFoDATBgNV
HSUEDDAKBggrBgEFBQcDAjAxBglghkgBhvhCAQ0EJBYiT3BlblNTTCBDZXJ0aWZp
Y2F0ZSBmb3IgU1NMIENsaWVudDAeBgNVHREEFzAVgRNjbGllbnQ1QGV4YW1wbGUu
Y29tMGcGA1UdHwRgMF4wOqA4oDaGNGxkYXA6Ly9sZGFwLmV4YW1wbGUuY29tOjM4
OS9DTj1jcmwsREM9ZXhhbXBsZSxEQz1jb20wIKAeoByGGmh0dHA6Ly9jcmwuZXhh
bXBsZS5jb20vY3JsMA0GCSqGSIb3DQEBBQUAA4GBAHD+X/vIT0nrCDfCXpkefchZ
Pl+75xQb7GRMGz0UvH51LxAPVubDu4fHAzuwlmjcDd5t4KugtYYdi/dEnQvhO1nU
f6kRZb7svos5eTMFSnZbwdeIF7GrjzTa2nkVbkmx7M74lYaN4nDN6Vcp84puhFlq
KAZYzi/3ivyShB+s+UD4
-----END CERTIFICATE-----
