Certificate:
    Data:
        Version: 3 (0x2)
        Serial Number: 1 (0x1)
        Signature Algorithm: sha1WithRSAEncryption
        Issuer: C=US, ST=WA, L=Seattle, CN=intermediate-ca.example.com
        Validity
            Not Before: May 14 23:38:43 2014 GMT
            Not After : Jun 22 23:38:43 2019 GMT
        Subject: C=US, ST=WA, L=Seattle, CN=*.example.com
        Subject Public Key Info:
            Public Key Algorithm: rsaEncryption
            RSA Public Key: (1024 bit)
                Modulus (1024 bit):
                    00:c7:d1:44:81:9f:ae:25:60:90:09:da:a0:72:a1:
                    ca:da:b2:78:6e:2a:75:d0:71:96:1b:66:4b:59:b4:
                    ae:b3:50:7a:89:58:a7:f2:62:fd:bc:8b:c1:6f:93:
                    6a:a3:04:34:80:00:1d:86:c7:50:53:1e:a8:79:7e:
                    17:b7:6a:9a:ce:9a:7f:77:0c:15:58:b5:2b:fa:26:
                    d6:c9:34:33:50:a1:d1:e0:5d:2e:6d:82:b8:fd:4f:
                    1b:77:76:33:88:f1:dc:cf:8a:94:6f:02:23:e2:45:
                    4b:88:2e:05:19:b4:6e:79:c6:88:29:02:48:a0:a6:
                    53:c9:2c:52:6f:57:c3:ca:f1
                Exponent: 65537 (0x10001)
        X509v3 extensions:
            X509v3 Basic Constraints: 
                CA:FALSE
            Netscape Cert Type: 
                SSL Server
            X509v3 Key Usage: 
                Digital Signature, Key Encipherment
            X509v3 Extended Key Usage: 
                TLS Web Server Authentication, Netscape Server Gated Crypto, Microsoft Server Gated Crypto
            Netscape Comment: 
                OpenSSL Certificate for SSL Web Server
    Signature Algorithm: sha1WithRSAEncryption
        9b:0d:3b:a7:cd:cf:52:a8:bf:9e:35:84:5f:87:92:f1:20:bb:
        89:1a:d0:b1:16:2d:6e:5e:23:eb:c8:0d:eb:ac:91:10:1c:f4:
        7f:bf:ee:cd:26:79:89:42:df:dc:dc:7d:d2:fe:c0:1b:0e:85:
        7d:0c:31:66:0a:bf:6c:f6:76:5e:8f:50:01:69:81:c1:a4:6c:
        bc:24:a9:f6:ce:aa:a7:5b:de:8a:5b:23:98:32:97:51:b0:d4:
        77:d7:38:06:97:7b:8d:62:4d:d9:8b:08:9a:ec:d9:8d:f1:db:
        e9:3b:e7:37:0b:d6:ee:09:b7:99:aa:d9:8f:49:a0:d4:c6:21:
        2a:71
-----BEGIN CERTIFICATE-----
MIICnjCCAgegAwIBAgIBATANBgkqhkiG9w0BAQUFADBSMQswCQYDVQQGEwJVUzEL
MAkGA1UECBMCV0ExEDAOBgNVBAcTB1NlYXR0bGUxJDAiBgNVBAMTG2ludGVybWVk
aWF0ZS1jYS5leGFtcGxlLmNvbTAeFw0xNDA1MTQyMzM4NDNaFw0xOTA2MjIyMzM4
NDNaMEQxCzAJBgNVBAYTAlVTMQswCQYDVQQIEwJXQTEQMA4GA1UEBxMHU2VhdHRs
ZTEWMBQGA1UEAxQNKi5leGFtcGxlLmNvbTCBnzANBgkqhkiG9w0BAQEFAAOBjQAw
gYkCgYEAx9FEgZ+uJWCQCdqgcqHK2rJ4bip10HGWG2ZLWbSus1B6iVin8mL9vIvB
b5NqowQ0gAAdhsdQUx6oeX4Xt2qazpp/dwwVWLUr+ibWyTQzUKHR4F0ubYK4/U8b
d3YziPHcz4qUbwIj4kVLiC4FGbRuecaIKQJIoKZTySxSb1fDyvECAwEAAaOBkTCB
jjAJBgNVHRMEAjAAMBEGCWCGSAGG+EIBAQQEAwIGQDALBgNVHQ8EBAMCBaAwKgYD
VR0lBCMwIQYIKwYBBQUHAwEGCWCGSAGG+EIEAQYKKwYBBAGCNwoDAzA1BglghkgB
hvhCAQ0EKBYmT3BlblNTTCBDZXJ0aWZpY2F0ZSBmb3IgU1NMIFdlYiBTZXJ2ZXIw
DQYJKoZIhvcNAQEFBQADgYEAmw07p83PUqi/njWEX4eS8SC7iRrQsRYtbl4j68gN
66yREBz0f7/uzSZ5iULf3Nx90v7AGw6FfQwxZgq/bPZ2Xo9QAWmBwaRsvCSp9s6q
p1veilsjmDKXUbDUd9c4Bpd7jWJN2YsImuzZjfHb6TvnNwvW7gm3marZj0mg1MYh
KnE=
-----END CERTIFICATE-----
