Certificate:
    Data:
        Version: 3 (0x2)
        Serial Number: 5 (0x5)
        Signature Algorithm: sha1WithRSAEncryption
        Issuer: C=US, ST=WA, L=Seattle, CN=intermediate-ca.example.com
        Validity
            Not Before: May 14 23:38:43 2014 GMT
            Not After : Jun 22 23:38:43 2019 GMT
        Subject: C=US, ST=WA, L=Seattle, OU=people, CN=client4/emailAddress=client4@example.com
        Subject Public Key Info:
            Public Key Algorithm: rsaEncryption
            RSA Public Key: (1024 bit)
                Modulus (1024 bit):
                    00:be:2f:08:25:3f:06:35:cc:fd:3e:8d:19:a0:40:
                    86:67:ba:23:5f:b8:82:b8:96:a3:fe:d3:64:7b:cf:
                    7f:c5:d6:38:c5:b9:bc:8e:19:de:8f:0f:a5:ae:37:
                    c8:f7:5e:a6:26:bb:1c:75:09:bd:4e:c8:bb:9c:ba:
                    31:54:39:94:80:79:5d:d3:2c:a4:f3:2f:45:fb:7b:
                    06:b8:5c:88:f9:a1:4c:f5:89:11:7e:cc:9f:55:1d:
                    c9:31:92:6f:8e:83:55:8c:f4:f8:93:ef:3e:b1:34:
                    98:36:59:12:f0:de:81:9b:39:f9:6d:10:31:d3:46:
                    16:e0:e6:ab:21:e0:77:76:61
                Exponent: 65537 (0x10001)
        X509v3 extensions:
            X509v3 Basic Constraints: 
                CA:FALSE
            Netscape Cert Type: 
                SSL Client
            X509v3 Key Usage: 
                Digital Signature, Key Encipherment
            X509v3 Extended Key Usage: 
                TLS Web Client Authentication
            Netscape Comment: 
                OpenSSL Certificate for SSL Client
            X509v3 Subject Alternative Name: 
                email:client4@example.com
            X509v3 CRL Distribution Points: 
                URI:ldap://ldap.example.com:389/CN=crl,DC=example,DC=com
                URI:http://crl.example.com/crl

    Signature Algorithm: sha1WithRSAEncryption
        96:ef:17:69:89:83:5c:38:dd:a6:8a:69:2f:28:65:06:b2:b6:
        eb:98:e7:a1:2c:6e:26:cb:a3:cd:f8:ab:1a:6d:d3:d1:f7:d5:
        25:b0:6c:bd:7d:68:80:dd:31:79:bc:05:44:97:b0:fc:02:7b:
        9d:d4:92:9e:30:1a:af:9d:7e:c1:87:ee:6c:ea:7f:82:f8:93:
        b7:f5:df:1a:4e:98:f2:e4:7a:35:f0:9e:fd:78:de:b7:61:04:
        da:f8:cf:ff:78:7b:d4:7e:7e:dc:be:09:08:e0:02:9e:d8:3f:
        55:89:0d:9e:a0:ee:3f:c6:00:8c:83:07:51:90:69:ff:42:37:
        a6:7f
-----BEGIN CERTIFICATE-----
MIIDOzCCAqSgAwIBAgIBBTANBgkqhkiG9w0BAQUFADBSMQswCQYDVQQGEwJVUzEL
MAkGA1UECBMCV0ExEDAOBgNVBAcTB1NlYXR0bGUxJDAiBgNVBAMTG2ludGVybWVk
aWF0ZS1jYS5leGFtcGxlLmNvbTAeFw0xNDA1MTQyMzM4NDNaFw0xOTA2MjIyMzM4
NDNaMHMxCzAJBgNVBAYTAlVTMQswCQYDVQQIEwJXQTEQMA4GA1UEBxMHU2VhdHRs
ZTEPMA0GA1UECxMGcGVvcGxlMRAwDgYDVQQDEwdjbGllbnQ0MSIwIAYJKoZIhvcN
AQkBFhNjbGllbnQ0QGV4YW1wbGUuY29tMIGfMA0GCSqGSIb3DQEBAQUAA4GNADCB
iQKBgQC+LwglPwY1zP0+jRmgQIZnuiNfuIK4lqP+02R7z3/F1jjFubyOGd6PD6Wu
N8j3XqYmuxx1Cb1OyLucujFUOZSAeV3TLKTzL0X7ewa4XIj5oUz1iRF+zJ9VHckx
km+Og1WM9PiT7z6xNJg2WRLw3oGbOfltEDHTRhbg5qsh4Hd2YQIDAQABo4H/MIH8
MAkGA1UdEwQCMAAwEQYJYIZIAYb4QgEBBAQDAgeAMAsGA1UdDwQEAwIFoDATBgNV
HSUEDDAKBggrBgEFBQcDAjAxBglghkgBhvhCAQ0EJBYiT3BlblNTTCBDZXJ0aWZp
Y2F0ZSBmb3IgU1NMIENsaWVudDAeBgNVHREEFzAVgRNjbGllbnQ0QGV4YW1wbGUu
Y29tMGcGA1UdHwRgMF4wOqA4oDaGNGxkYXA6Ly9sZGFwLmV4YW1wbGUuY29tOjM4
OS9DTj1jcmwsREM9ZXhhbXBsZSxEQz1jb20wIKAeoByGGmh0dHA6Ly9jcmwuZXhh
bXBsZS5jb20vY3JsMA0GCSqGSIb3DQEBBQUAA4GBAJbvF2mJg1w43aaKaS8oZQay
tuuY56EsbibLo834qxpt09H31SWwbL19aIDdMXm8BUSXsPwCe53Ukp4wGq+dfsGH
7mzqf4L4k7f13xpOmPLkejXwnv143rdhBNr4z/94e9R+fty+CQjgAp7YP1WJDZ6g
7j/GAIyDB1GQaf9CN6Z/
-----END CERTIFICATE-----
