Certificate:
    Data:
        Version: 3 (0x2)
        Serial Number: 7 (0x7)
        Signature Algorithm: sha1WithRSAEncryption
        Issuer: C=US, ST=WA, L=Seattle, CN=intermediate-ca.example.com
        Validity
            Not Before: May 14 23:38:43 2014 GMT
            Not After : Jun 22 23:38:43 2019 GMT
        Subject: C=US, ST=WA, L=Seattle, OU=people, CN=client6/emailAddress=client6@example.com
        Subject Public Key Info:
            Public Key Algorithm: rsaEncryption
            RSA Public Key: (512 bit)
                Modulus (512 bit):
                    00:b1:25:66:b4:8a:1a:9c:5d:63:36:2d:c4:e6:66:
                    6a:75:f2:ac:c7:3d:5b:09:69:e5:0a:14:63:76:15:
                    30:31:72:78:6a:ef:4f:57:02:e4:7c:d8:ea:8e:be:
                    17:40:d2:87:77:cf:2c:1a:50:56:6c:c2:1e:f4:48:
                    e4:bf:3c:8c:2b
                Exponent: 65537 (0x10001)
        X509v3 extensions:
            X509v3 Basic Constraints: 
                CA:FALSE
            Netscape Cert Type: 
                SSL Client
            X509v3 Key Usage: 
                Digital Signature, Key Encipherment
            X509v3 Extended Key Usage: 
                TLS Web Client Authentication
            Netscape Comment: 
                OpenSSL Certificate for SSL Client
            X509v3 Subject Alternative Name: 
                email:client6@example.com
            X509v3 CRL Distribution Points: 
                URI:ldap://ldap.example.com:389/CN=crl,DC=example,DC=com
                URI:http://crl.example.com/crl

    Signature Algorithm: sha1WithRSAEncryption
        a8:91:bc:50:56:7f:54:6a:96:82:3f:4c:89:c2:99:f2:94:70:
        f9:d4:eb:38:c9:71:73:fc:3f:d9:1d:9a:48:3b:64:58:0b:8b:
        37:c4:29:bf:0f:7e:93:2d:24:6e:a1:09:d7:ff:11:65:ac:56:
        cd:d3:69:1e:63:00:8d:28:f7:3d:8a:8d:51:43:13:bf:34:4b:
        33:ab:6a:a2:11:3a:7c:d8:9d:b6:b9:a8:05:b2:6c:81:a4:46:
        de:6f:98:b9:64:65:c1:34:7c:17:02:2f:02:c7:7e:29:8a:c8:
        43:bf:c2:92:e6:4a:64:40:8a:e3:32:28:69:3b:52:62:bf:7b:
        24:6f
-----BEGIN CERTIFICATE-----
MIIC9zCCAmCgAwIBAgIBBzANBgkqhkiG9w0BAQUFADBSMQswCQYDVQQGEwJVUzEL
MAkGA1UECBMCV0ExEDAOBgNVBAcTB1NlYXR0bGUxJDAiBgNVBAMTG2ludGVybWVk
aWF0ZS1jYS5leGFtcGxlLmNvbTAeFw0xNDA1MTQyMzM4NDNaFw0xOTA2MjIyMzM4
NDNaMHMxCzAJBgNVBAYTAlVTMQswCQYDVQQIEwJXQTEQMA4GA1UEBxMHU2VhdHRs
ZTEPMA0GA1UECxMGcGVvcGxlMRAwDgYDVQQDEwdjbGllbnQ2MSIwIAYJKoZIhvcN
AQkBFhNjbGllbnQ2QGV4YW1wbGUuY29tMFwwDQYJKoZIhvcNAQEBBQADSwAwSAJB
ALElZrSKGpxdYzYtxOZmanXyrMc9Wwlp5QoUY3YVMDFyeGrvT1cC5HzY6o6+F0DS
h3fPLBpQVmzCHvRI5L88jCsCAwEAAaOB/zCB/DAJBgNVHRMEAjAAMBEGCWCGSAGG
+EIBAQQEAwIHgDALBgNVHQ8EBAMCBaAwEwYDVR0lBAwwCgYIKwYBBQUHAwIwMQYJ
YIZIAYb4QgENBCQWIk9wZW5TU0wgQ2VydGlmaWNhdGUgZm9yIFNTTCBDbGllbnQw
HgYDVR0RBBcwFYETY2xpZW50NkBleGFtcGxlLmNvbTBnBgNVHR8EYDBeMDqgOKA2
hjRsZGFwOi8vbGRhcC5leGFtcGxlLmNvbTozODkvQ049Y3JsLERDPWV4YW1wbGUs
REM9Y29tMCCgHqAchhpodHRwOi8vY3JsLmV4YW1wbGUuY29tL2NybDANBgkqhkiG
9w0BAQUFAAOBgQCokbxQVn9UapaCP0yJwpnylHD51Os4yXFz/D/ZHZpIO2RYC4s3
xCm/D36TLSRuoQnX/xFlrFbN02keYwCNKPc9io1RQxO/NEszq2qiETp82J22uagF
smyBpEbeb5i5ZGXBNHwXAi8Cx34pishDv8KS5kpkQIrjMihpO1Jiv3skbw==
-----END CERTIFICATE-----
