Certificate:
    Data:
        Version: 3 (0x2)
        Serial Number: 9 (0x9)
        Signature Algorithm: sha1WithRSAEncryption
        Issuer: C=US, ST=WA, L=Seattle, CN=intermediate-ca.example.com
        Validity
            Not Before: May 14 23:38:48 2014 GMT
            Not After : Jul 12 23:38:48 2019 GMT
        Subject: C=US, ST=WA, L=Seattle, OU=people, CN=client8/emailAddress=client8@example.com
        Subject Public Key Info:
            Public Key Algorithm: rsaEncryption
            RSA Public Key: (4096 bit)
                Modulus (4096 bit):
                    00:b6:0f:39:b0:cc:85:9c:2a:cd:e2:68:3d:d8:7a:
                    34:53:cc:53:cf:55:3d:cc:ec:a9:67:8f:21:20:52:
                    cc:4f:08:ae:0f:43:ea:94:77:2f:64:48:fc:36:99:
                    17:e5:b4:4f:b8:46:11:e7:5e:cc:a7:b0:89:bb:a6:
                    84:f1:a1:ee:ae:7b:d0:25:5b:d9:2a:0e:8e:ae:bf:
                    d4:20:58:5b:ec:9e:1a:79:98:5f:e4:c5:21:31:f6:
                    f0:1d:b1:65:da:17:87:11:c3:01:f5:86:bf:9d:d5:
                    a7:b0:3b:c5:29:f1:62:1d:7b:74:0a:ab:da:36:5c:
                    aa:c3:7b:f7:dc:4c:33:98:b3:ee:27:56:44:ee:49:
                    0b:6c:0c:df:5a:2b:51:6e:09:fe:bf:89:c2:42:21:
                    fc:62:0c:02:e0:ff:0f:8e:1b:ff:c9:53:eb:63:9d:
                    a1:83:b3:5d:45:6b:0d:c9:90:7b:f9:b1:d7:c5:cd:
                    8e:9d:24:c2:07:e0:86:a3:b2:61:8a:e5:f9:fd:ff:
                    dd:6d:30:88:52:5b:b9:85:74:cc:da:8a:0f:ee:51:
                    dc:4a:b4:39:e8:6d:6c:3b:98:80:f1:ca:b4:22:fc:
                    c9:8b:b9:11:8d:33:71:21:be:5f:46:af:11:67:8c:
                    b4:e4:e6:ed:66:bb:a8:e5:3c:32:a1:11:41:d8:1f:
                    18:f8:8a:ef:2d:67:99:d0:d0:20:62:46:b8:a0:82:
                    55:b6:09:06:f5:c0:fa:58:83:86:b7:56:0d:b0:51:
                    80:7a:69:0d:29:60:b4:0b:66:30:8f:fb:f1:24:c2:
                    74:17:9e:d5:bb:c1:0f:25:b0:32:ae:6f:c4:a6:44:
                    ea:7f:2f:33:2e:a5:6a:de:44:63:54:22:f2:85:ba:
                    39:df:e1:c2:a2:1a:fc:67:95:c7:b6:95:3b:f5:04:
                    31:99:a4:08:1e:ce:02:4b:b3:08:38:b7:61:f3:f5:
                    9a:8f:53:e9:e9:be:17:d6:77:20:eb:41:da:3c:ce:
                    12:6c:c6:d3:c6:91:54:81:f1:08:a7:e9:8f:62:5f:
                    d7:9c:84:9e:d7:76:01:13:3a:1d:e9:48:e0:54:dd:
                    4b:5a:87:9f:7e:16:53:3e:f5:d9:a8:0d:13:98:7a:
                    c9:98:8c:30:4b:0c:5c:40:8a:4c:b8:cc:4c:8c:eb:
                    a2:c9:44:03:9f:54:71:a1:ba:81:72:76:da:54:21:
                    7a:b0:37:7e:25:5f:55:48:4b:8e:fd:e0:33:b9:e5:
                    13:1b:50:35:75:4d:0c:d3:d4:c8:44:a3:e2:d0:86:
                    41:e9:72:5b:bb:60:da:9b:1c:1b:c1:1c:a7:40:37:
                    7f:86:f5:13:64:ea:da:e5:fc:07:d8:d5:64:be:23:
                    6e:f7:cf
                Exponent: 65537 (0x10001)
        X509v3 extensions:
            X509v3 Basic Constraints: 
                CA:FALSE
            Netscape Cert Type: 
                SSL Client
            X509v3 Key Usage: 
                Digital Signature, Key Encipherment
            X509v3 Extended Key Usage: 
                TLS Web Client Authentication
            Netscape Comment: 
                OpenSSL Certificate for SSL Client
            X509v3 Subject Alternative Name: 
                email:client8@example.com
            X509v3 CRL Distribution Points: 
                URI:ldap://ldap.example.com:389/CN=crl,DC=example,DC=com
                URI:http://crl.example.com/crl

    Signature Algorithm: sha1WithRSAEncryption
        3a:3f:4d:b4:12:83:0d:bb:01:ef:4d:2c:45:e0:f1:fc:e8:5a:
        80:0c:91:d0:8a:3e:72:1a:26:4a:00:ea:2c:21:45:eb:8f:b5:
        6d:2b:d0:05:e0:ec:16:45:42:bc:68:3a:b5:5d:60:08:9a:51:
        3a:a3:83:ab:eb:7b:b6:18:35:f1:a6:c7:19:ec:e5:98:0a:67:
        6a:59:9b:02:92:af:d2:ce:95:c4:77:14:51:66:f4:c9:41:83:
        63:eb:de:ef:f7:0c:fc:0d:d7:97:8b:82:41:c2:1e:8b:8d:b9:
        12:84:d4:96:a9:8f:ca:53:09:0b:e7:6a:56:d7:54:7c:cc:91:
        e0:9e
-----BEGIN CERTIFICATE-----
MIIEvzCCBCigAwIBAgIBCTANBgkqhkiG9w0BAQUFADBSMQswCQYDVQQGEwJVUzEL
MAkGA1UECBMCV0ExEDAOBgNVBAcTB1NlYXR0bGUxJDAiBgNVBAMTG2ludGVybWVk
aWF0ZS1jYS5leGFtcGxlLmNvbTAeFw0xNDA1MTQyMzM4NDhaFw0xOTA3MTIyMzM4
NDhaMHMxCzAJBgNVBAYTAlVTMQswCQYDVQQIEwJXQTEQMA4GA1UEBxMHU2VhdHRs
ZTEPMA0GA1UECxMGcGVvcGxlMRAwDgYDVQQDEwdjbGllbnQ4MSIwIAYJKoZIhvcN
AQkBFhNjbGllbnQ4QGV4YW1wbGUuY29tMIICIjANBgkqhkiG9w0BAQEFAAOCAg8A
MIICCgKCAgEAtg85sMyFnCrN4mg92Ho0U8xTz1U9zOypZ48hIFLMTwiuD0PqlHcv
ZEj8NpkX5bRPuEYR517Mp7CJu6aE8aHurnvQJVvZKg6Orr/UIFhb7J4aeZhf5MUh
MfbwHbFl2heHEcMB9Ya/ndWnsDvFKfFiHXt0CqvaNlyqw3v33EwzmLPuJ1ZE7kkL
bAzfWitRbgn+v4nCQiH8YgwC4P8Pjhv/yVPrY52hg7NdRWsNyZB7+bHXxc2OnSTC
B+CGo7JhiuX5/f/dbTCIUlu5hXTM2ooP7lHcSrQ56G1sO5iA8cq0IvzJi7kRjTNx
Ib5fRq8RZ4y05ObtZruo5TwyoRFB2B8Y+IrvLWeZ0NAgYka4oIJVtgkG9cD6WIOG
t1YNsFGAemkNKWC0C2Ywj/vxJMJ0F57Vu8EPJbAyrm/EpkTqfy8zLqVq3kRjVCLy
hbo53+HCohr8Z5XHtpU79QQxmaQIHs4CS7MIOLdh8/Waj1Pp6b4X1ncg60HaPM4S
bMbTxpFUgfEIp+mPYl/XnISe13YBEzod6UjgVN1LWoeffhZTPvXZqA0TmHrJmIww
SwxcQIpMuMxMjOuiyUQDn1RxobqBcnbaVCF6sDd+JV9VSEuO/eAzueUTG1A1dU0M
09TIRKPi0IZB6XJbu2DamxwbwRynQDd/hvUTZOra5fwH2NVkviNu988CAwEAAaOB
/zCB/DAJBgNVHRMEAjAAMBEGCWCGSAGG+EIBAQQEAwIHgDALBgNVHQ8EBAMCBaAw
EwYDVR0lBAwwCgYIKwYBBQUHAwIwMQYJYIZIAYb4QgENBCQWIk9wZW5TU0wgQ2Vy
dGlmaWNhdGUgZm9yIFNTTCBDbGllbnQwHgYDVR0RBBcwFYETY2xpZW50OEBleGFt
cGxlLmNvbTBnBgNVHR8EYDBeMDqgOKA2hjRsZGFwOi8vbGRhcC5leGFtcGxlLmNv
bTozODkvQ049Y3JsLERDPWV4YW1wbGUsREM9Y29tMCCgHqAchhpodHRwOi8vY3Js
LmV4YW1wbGUuY29tL2NybDANBgkqhkiG9w0BAQUFAAOBgQA6P020EoMNuwHvTSxF
4PH86FqADJHQij5yGiZKAOosIUXrj7VtK9AF4OwWRUK8aDq1XWAImlE6o4Or63u2
GDXxpscZ7OWYCmdqWZsCkq/SzpXEdxRRZvTJQYNj697v9wz8DdeXi4JBwh6LjbkS
hNSWqY/KUwkL52pW11R8zJHgng==
-----END CERTIFICATE-----
